; Function Attrs: mustprogress uwtable
define void @_ZN21MultiViewer_Container21patchForCorrectResizeEP9QSplitter(ptr nocapture nonnull readnone align 8 %0, ptr noundef nonnull %1) local_unnamed_addr #9 align 2 personality ptr @__gxx_personality_v0 {
  %3 = alloca i32, align 4
  %4 = alloca %class.QList.72, align 8
  %5 = alloca i32, align 4
  %6 = getelementptr inbounds i8, ptr %1, i64 40
  %7 = load ptr, ptr %6, align 8
  %8 = getelementptr inbounds i8, ptr %7, i64 20
  %9 = getelementptr inbounds i8, ptr %7, i64 28
  %10 = load i32, ptr %9, align 4
  %11 = load i32, ptr %8, align 4
  %12 = add i32 %10, 1
  %13 = sub i32 %12, %11
  %14 = getelementptr inbounds i8, ptr %7, i64 32
  %15 = load i32, ptr %14, align 4
  %16 = getelementptr inbounds i8, ptr %7, i64 24
  %17 = load i32, ptr %16, align 4
  %18 = add i32 %15, 1
  %19 = sub i32 %18, %17
  %20 = tail call noundef i32 @_ZNK9QSplitter11orientationEv(ptr noundef nonnull align 8 dereferenceable(48) %1)
  %21 = icmp eq i32 %20, 1
  %spec.select = select i1 %21, i32 %13, i32 %19
  %storemerge = sdiv i32 %spec.select, 2
  store i32 %storemerge, ptr %3, align 4
  store ptr @_ZN9QListData11shared_nullE, ptr %4, align 8
  br label %22

22:                                               ; preds = %_ZN5QListIiE9push_backERKi.exit, %2
  %.0 = phi i32 [ 0, %2 ], [ %37, %_ZN5QListIiE9push_backERKi.exit ]
  %23 = invoke noundef i32 @_ZNK9QSplitter5countEv(ptr noundef nonnull align 8 dereferenceable(48) %1)
          to label %24 unwind label %.loopexit

24:                                               ; preds = %22
  %25 = icmp slt i32 %.0, %23
  br i1 %25, label %26, label %38

26:                                               ; preds = %24
  %27 = invoke noundef ptr @_ZNK9QSplitter6widgetEi(ptr noundef nonnull align 8 dereferenceable(48) %1, i32 noundef %.0)
          to label %28 unwind label %.loopexit

28:                                               ; preds = %26
  %29 = getelementptr inbounds i8, ptr %27, i64 40
  %30 = load ptr, ptr %29, align 8
  %31 = getelementptr inbounds i8, ptr %30, i64 8
  %32 = load i32, ptr %31, align 8
  %33 = and i32 %32, 32768
  %.not = icmp eq i32 %33, 0
  br i1 %.not, label %36, label %.invoke

.invoke:                                          ; preds = %28, %36
  %34 = phi ptr [ %5, %36 ], [ %3, %28 ]
  invoke void @_ZN5QListIiE6appendERKi(ptr noundef nonnull align 8 dereferenceable(8) %4, ptr noundef nonnull align 4 dereferenceable(4) %34)
          to label %_ZN5QListIiE9push_backERKi.exit unwind label %.loopexit

.loopexit:                                        ; preds = %.invoke, %22, %26
  %lpad.loopexit = landingpad { ptr, i32 }
          cleanup
  br label %35

.loopexit.split-lp:                               ; preds = %38
  %lpad.loopexit.split-lp = landingpad { ptr, i32 }
          cleanup
  br label %35

35:                                               ; preds = %.loopexit.split-lp, %.loopexit
  %lpad.phi = phi { ptr, i32 } [ %lpad.loopexit, %.loopexit ], [ %lpad.loopexit.split-lp, %.loopexit.split-lp ]
  call void @_ZN5QListIiED2Ev(ptr noundef nonnull align 8 dereferenceable(8) %4) #19
  resume { ptr, i32 } %lpad.phi

36:                                               ; preds = %28
  store i32 0, ptr %5, align 4
  br label %.invoke

_ZN5QListIiE9push_backERKi.exit:                  ; preds = %.invoke
  %37 = add nuw nsw i32 %.0, 1
  br label %22, !llvm.loop !35

38:                                               ; preds = %24
  invoke void @_ZN9QSplitter8setSizesERK5QListIiE(ptr noundef nonnull align 8 dereferenceable(48) %1, ptr noundef nonnull align 8 dereferenceable(8) %4)
          to label %39 unwind label %.loopexit.split-lp

39:                                               ; preds = %38
  %40 = load ptr, ptr %4, align 8
  %41 = load atomic i32, ptr %40 monotonic, align 4
  switch i32 %41, label %_ZN9QtPrivate8RefCount5derefEv.exit.i [
    i32 0, label %_ZN9QtPrivate8RefCount5derefEv.exit.thread2.i
    i32 -1, label %_ZN5QListIiED2Ev.exit
  ]

_ZN9QtPrivate8RefCount5derefEv.exit.i:            ; preds = %39
  %42 = atomicrmw sub ptr %40, i32 1 seq_cst, align 4
  %.not.i = icmp eq i32 %42, 1
  br i1 %.not.i, label %_ZN9QtPrivate8RefCount5derefEv.exit._ZN9QtPrivate8RefCount5derefEv.exit.thread2_crit_edge.i, label %_ZN5QListIiED2Ev.exit

_ZN9QtPrivate8RefCount5derefEv.exit._ZN9QtPrivate8RefCount5derefEv.exit.thread2_crit_edge.i: ; preds = %_ZN9QtPrivate8RefCount5derefEv.exit.i
  %.pre.i = load ptr, ptr %4, align 8
  br label %_ZN9QtPrivate8RefCount5derefEv.exit.thread2.i

_ZN9QtPrivate8RefCount5derefEv.exit.thread2.i:    ; preds = %_ZN9QtPrivate8RefCount5derefEv.exit._ZN9QtPrivate8RefCount5derefEv.exit.thread2_crit_edge.i, %39
  %43 = phi ptr [ %.pre.i, %_ZN9QtPrivate8RefCount5derefEv.exit._ZN9QtPrivate8RefCount5derefEv.exit.thread2_crit_edge.i ], [ %40, %39 ]
  invoke void @_ZN9QListData7disposeEPNS_4DataE(ptr noundef %43)
          to label %_ZN5QListIiED2Ev.exit unwind label %44

44:                                               ; preds = %_ZN9QtPrivate8RefCount5derefEv.exit.thread2.i
  %45 = landingpad { ptr, i32 }
          catch ptr null
  %46 = extractvalue { ptr, i32 } %45, 0
  call void @__clang_call_terminate(ptr %46) #20
  unreachable

_ZN5QListIiED2Ev.exit:                            ; preds = %39, %_ZN9QtPrivate8RefCount5derefEv.exit.i, %_ZN9QtPrivate8RefCount5derefEv.exit.thread2.i
  ret void
}